; Function Attrs: mustprogress uwtable
define void @_ZNK10open_spiel8efg_game8EFGState5CloneEv(ptr dead_on_unwind noalias writable writeonly sret(%"class.std::unique_ptr") align 8 captures(none) %0, ptr noundef nonnull align 8 dereferenceable(72) %1) unnamed_addr #3 align 2 personality ptr @__gxx_personality_v0 {
  %3 = tail call noalias noundef nonnull dereferenceable(72) ptr @_Znwm(i64 noundef 72) #31
  invoke void @_ZN10open_spiel5StateC2ERKS0_(ptr noundef nonnull align 8 dereferenceable(72) %3, ptr noundef nonnull align 8 dereferenceable(72) %1)
          to label %4 unwind label %8

4:                                                ; preds = %2
  store ptr getelementptr inbounds nuw inrange(-16, 304) (i8, ptr @_ZTVN10open_spiel8efg_game8EFGStateE, i64 16), ptr %3, align 8
  %5 = getelementptr inbounds nuw i8, ptr %3, i64 64
  %6 = getelementptr inbounds nuw i8, ptr %1, i64 64
  %7 = load ptr, ptr %6, align 8
  store ptr %7, ptr %5, align 8
  store ptr %3, ptr %0, align 8
  ret void

8:                                                ; preds = %2
  %9 = landingpad { ptr, i32 }
          cleanup
  tail call void @_ZdlPvm(ptr noundef nonnull %3, i64 noundef 72) #32
  resume { ptr, i32 } %9
}